target datalayout = "e-m:e-p270:32:32-p271:32:32-p272:64:64-i64:64-i128:128-f80:128-n8:16:32:64-S128"
target triple = "x86_64-pc-linux-gnu"

; Function Attrs: nounwind uwtable
define hidden i32 @getSignificantBits(i32 noundef %0, i32 noundef %1) #0 {
  %3 = alloca i32, align 4
  %4 = alloca i32, align 4
  %5 = alloca i32, align 4
  store i32 %0, ptr %4, align 4
  store i32 %1, ptr %5, align 4
  %6 = load i32, ptr %4, align 4
  switch i32 %6, label %11 [
    i32 1, label %7
    i32 2, label %8
    i32 3, label %9
    i32 4, label %10
    i32 5, label %10
  ]

7:                                                ; preds = %2
  store i32 8, ptr %3, align 4
  br label %13

8:                                                ; preds = %2
  store i32 16, ptr %3, align 4
  br label %13

9:                                                ; preds = %2
  store i32 20, ptr %3, align 4
  br label %13

10:                                               ; preds = %2, %2
  store i32 24, ptr %3, align 4
  br label %13

11:                                               ; preds = %2
  %12 = load i32, ptr %5, align 4
  store i32 %12, ptr %3, align 4
  br label %13

13:                                               ; preds = %11, %10, %9, %8, %7
  %14 = load i32, ptr %3, align 4
  ret i32 %14
}

; Function Attrs: nounwind uwtable
define hidden i32 @getSampleSizeInBytes(i32 noundef %0, i32 noundef %1) #0 {
  %3 = alloca i32, align 4
  %4 = alloca i32, align 4
  %5 = alloca i32, align 4
  store i32 %0, ptr %4, align 4
  store i32 %1, ptr %5, align 4
  %6 = load i32, ptr %4, align 4
  switch i32 %6, label %11 [
    i32 1, label %7
    i32 2, label %8
    i32 3, label %9
    i32 4, label %9
    i32 5, label %10
  ]

7:                                                ; preds = %2
  store i32 1, ptr %3, align 4
  br label %13

8:                                                ; preds = %2
  store i32 2, ptr %3, align 4
  br label %13

9:                                                ; preds = %2, %2
  store i32 3, ptr %3, align 4
  br label %13

10:                                               ; preds = %2
  store i32 4, ptr %3, align 4
  br label %13

11:                                               ; preds = %2
  %12 = load i32, ptr %5, align 4
  store i32 %12, ptr %3, align 4
  br label %13

13:                                               ; preds = %11, %10, %9, %8, %7
  %14 = load i32, ptr %3, align 4
  ret i32 %14
}

; Function Attrs: nounwind uwtable
define hidden i32 @getBitIndex(i32 noundef %0, i32 noundef %1) #0 {
  %3 = alloca i32, align 4
  %4 = alloca i32, align 4
  %5 = alloca i32, align 4
  store i32 %0, ptr %4, align 4
  store i32 %1, ptr %5, align 4
  %6 = load i32, ptr %5, align 4
  %7 = icmp sgt i32 %6, 24
  br i1 %7, label %8, label %9

8:                                                ; preds = %2
  store i32 6, ptr %3, align 4
  br label %43

9:                                                ; preds = %2
  %10 = load i32, ptr %4, align 4
  %11 = icmp eq i32 %10, 4
  br i1 %11, label %12, label %16

12:                                               ; preds = %9
  %13 = load i32, ptr %5, align 4
  %14 = icmp eq i32 %13, 24
  br i1 %14, label %15, label %16

15:                                               ; preds = %12
  store i32 5, ptr %3, align 4
  br label %43

16:                                               ; preds = %12, %9
  %17 = load i32, ptr %4, align 4
  %18 = icmp eq i32 %17, 3
  br i1 %18, label %19, label %28

19:                                               ; preds = %16
  %20 = load i32, ptr %5, align 4
  %21 = icmp eq i32 %20, 24
  br i1 %21, label %22, label %23

22:                                               ; preds = %19
  store i32 4, ptr %3, align 4
  br label %43

23:                                               ; preds = %19
  %24 = load i32, ptr %5, align 4
  %25 = icmp eq i32 %24, 20
  br i1 %25, label %26, label %27

26:                                               ; preds = %23
  store i32 3, ptr %3, align 4
  br label %43

27:                                               ; preds = %23
  br label %28

28:                                               ; preds = %27, %16
  %29 = load i32, ptr %4, align 4
  %30 = icmp eq i32 %29, 2
  br i1 %30, label %31, label %35

31:                                               ; preds = %28
  %32 = load i32, ptr %5, align 4
  %33 = icmp eq i32 %32, 16
  br i1 %33, label %34, label %35

34:                                               ; preds = %31
  store i32 2, ptr %3, align 4
  br label %43

35:                                               ; preds = %31, %28
  %36 = load i32, ptr %4, align 4
  %37 = icmp eq i32 %36, 1
  br i1 %37, label %38, label %42

38:                                               ; preds = %35
  %39 = load i32, ptr %5, align 4
  %40 = icmp eq i32 %39, 8
  br i1 %40, label %41, label %42

41:                                               ; preds = %38
  store i32 1, ptr %3, align 4
  br label %43

42:                                               ; preds = %38, %35
  store i32 0, ptr %3, align 4
  br label %43

43:                                               ; preds = %42, %41, %34, %26, %22, %15, %8
  %44 = load i32, ptr %3, align 4
  ret i32 %44
}

; Function Attrs: nounwind uwtable
define hidden void @DAUDIO_GetFormats(i32 noundef %0, i32 noundef %1, i32 noundef %2, ptr noundef %3) #0 {
  %5 = alloca i32, align 4
  %6 = alloca i32, align 4
  %7 = alloca i32, align 4
  %8 = alloca ptr, align 8
  %9 = alloca ptr, align 8
  %10 = alloca ptr, align 8
  %11 = alloca i32, align 4
  %12 = alloca ptr, align 8
  %13 = alloca [7 x i32], align 16
  %14 = alloca i32, align 4
  %15 = alloca i32, align 4
  %16 = alloca i32, align 4
  %17 = alloca i32, align 4
  %18 = alloca i32, align 4
  %19 = alloca i32, align 4
  %20 = alloca i32, align 4
  %21 = alloca i32, align 4
  %22 = alloca i32, align 4
  %23 = alloca i32, align 4
  %24 = alloca i32, align 4
  %25 = alloca i32, align 4
  %26 = alloca i32, align 4
  store i32 %0, ptr %5, align 4
  store i32 %1, ptr %6, align 4
  store i32 %2, ptr %7, align 4
  store ptr %3, ptr %8, align 8
  store i32 0, ptr %26, align 4
  br label %27

27:                                               ; preds = %34, %4
  %28 = load i32, ptr %26, align 4
  %29 = icmp sle i32 %28, 6
  br i1 %29, label %30, label %37

30:                                               ; preds = %27
  %31 = load i32, ptr %26, align 4
  %32 = sext i32 %31 to i64
  %33 = getelementptr inbounds [7 x i32], ptr %13, i64 0, i64 %32
  store i32 0, ptr %33, align 4
  br label %34

34:                                               ; preds = %30
  %35 = load i32, ptr %26, align 4
  %36 = add nsw i32 %35, 1
  store i32 %36, ptr %26, align 4
  br label %27, !llvm.loop !6

37:                                               ; preds = %27
  %38 = load i32, ptr %6, align 4
  %39 = load i32, ptr %7, align 4
  %40 = call i32 @openPCMfromDeviceID(i32 noundef %38, ptr noundef %9, i32 noundef %39, i32 noundef 1)
  %41 = icmp slt i32 %40, 0
  br i1 %41, label %42, label %43

42:                                               ; preds = %37
  br label %203

43:                                               ; preds = %37
  %44 = call i32 @snd_pcm_format_mask_malloc(ptr noundef %10)
  store i32 %44, ptr %14, align 4
  %45 = load i32, ptr %14, align 4
  %46 = icmp ne i32 %45, 0
  br i1 %46, label %47, label %48

47:                                               ; preds = %43
  br label %200

48:                                               ; preds = %43
  %49 = call i32 @snd_pcm_hw_params_malloc(ptr noundef %12)
  store i32 %49, ptr %14, align 4
  %50 = load i32, ptr %14, align 4
  %51 = icmp ne i32 %50, 0
  br i1 %51, label %52, label %53

52:                                               ; preds = %48
  br label %62

53:                                               ; preds = %48
  %54 = load ptr, ptr %9, align 8
  %55 = load ptr, ptr %12, align 8
  %56 = call i32 @snd_pcm_hw_params_any(ptr noundef %54, ptr noundef %55)
  store i32 %56, ptr %14, align 4
  %57 = load i32, ptr %14, align 4
  %58 = icmp slt i32 %57, 0
  br i1 %58, label %59, label %60

59:                                               ; preds = %53
  br label %61

60:                                               ; preds = %53
  store i32 0, ptr %14, align 4
  br label %61

61:                                               ; preds = %60, %59
  br label %62

62:                                               ; preds = %61, %52
  %63 = load ptr, ptr %12, align 8
  %64 = load ptr, ptr %10, align 8
  call void @snd_pcm_hw_params_get_format_mask(ptr noundef %63, ptr noundef %64)
  %65 = load i32, ptr %14, align 4
  %66 = icmp eq i32 %65, 0
  br i1 %66, label %67, label %74

67:                                               ; preds = %62
  %68 = load ptr, ptr %12, align 8
  %69 = call i32 @snd_pcm_hw_params_get_channels_min(ptr noundef %68, ptr noundef %23)
  store i32 %69, ptr %14, align 4
  %70 = load i32, ptr %14, align 4
  %71 = icmp ne i32 %70, 0
  br i1 %71, label %72, label %73

72:                                               ; preds = %67
  br label %73

73:                                               ; preds = %72, %67
  br label %74

74:                                               ; preds = %73, %62
  %75 = load i32, ptr %14, align 4
  %76 = icmp eq i32 %75, 0
  br i1 %76, label %77, label %84

77:                                               ; preds = %74
  %78 = load ptr, ptr %12, align 8
  %79 = call i32 @snd_pcm_hw_params_get_channels_max(ptr noundef %78, ptr noundef %24)
  store i32 %79, ptr %14, align 4
  %80 = load i32, ptr %14, align 4
  %81 = icmp ne i32 %80, 0
  br i1 %81, label %82, label %83

82:                                               ; preds = %77
  br label %83

83:                                               ; preds = %82, %77
  br label %84

84:                                               ; preds = %83, %74
  store i32 1, ptr %23, align 4
  %85 = load i32, ptr %14, align 4
  %86 = icmp eq i32 %85, 0
  br i1 %86, label %87, label %198

87:                                               ; preds = %84
  store i32 -1, ptr %25, align 4
  store i32 0, ptr %11, align 4
  br label %88

88:                                               ; preds = %193, %87
  %89 = load i32, ptr %11, align 4
  %90 = icmp sle i32 %89, 52
  br i1 %90, label %91, label %196

91:                                               ; preds = %88
  %92 = load ptr, ptr %10, align 8
  %93 = load i32, ptr %11, align 4
  %94 = call i32 @snd_pcm_format_mask_test(ptr noundef %92, i32 noundef %93)
  %95 = icmp ne i32 %94, 0
  br i1 %95, label %96, label %191

96:                                               ; preds = %91
  %97 = load i32, ptr %11, align 4
  %98 = call i32 @getFormatFromAlsaFormat(i32 noundef %97, ptr noundef %20, ptr noundef %21, ptr noundef %17, ptr noundef %18, ptr noundef %19)
  %99 = icmp ne i32 %98, 0
  br i1 %99, label %100, label %189

100:                                              ; preds = %96
  %101 = load i32, ptr %20, align 4
  %102 = load i32, ptr %21, align 4
  %103 = call i32 @getBitIndex(i32 noundef %101, i32 noundef %102)
  store i32 %103, ptr %26, align 4
  br label %104

104:                                              ; preds = %184, %100
  %105 = load i32, ptr %26, align 4
  %106 = icmp eq i32 %105, 0
  br i1 %106, label %116, label %107

107:                                              ; preds = %104
  %108 = load i32, ptr %26, align 4
  %109 = icmp eq i32 %108, 6
  br i1 %109, label %116, label %110

110:                                              ; preds = %107
  %111 = load i32, ptr %26, align 4
  %112 = sext i32 %111 to i64
  %113 = getelementptr inbounds [7 x i32], ptr %13, i64 0, i64 %112
  %114 = load i32, ptr %113, align 4
  %115 = icmp ne i32 %114, 0
  br i1 %115, label %183, label %116

116:                                              ; preds = %110, %107, %104
  %117 = load i32, ptr %26, align 4
  %118 = sext i32 %117 to i64
  %119 = getelementptr inbounds [7 x i32], ptr %13, i64 0, i64 %118
  store i32 1, ptr %119, align 4
  %120 = load i32, ptr %26, align 4
  %121 = load i32, ptr %20, align 4
  %122 = call i32 @getSampleSizeInBytes(i32 noundef %120, i32 noundef %121)
  store i32 %122, ptr %15, align 4
  %123 = load i32, ptr %26, align 4
  %124 = load i32, ptr %21, align 4
  %125 = call i32 @getSignificantBits(i32 noundef %123, i32 noundef %124)
  store i32 %125, ptr %16, align 4
  %126 = load i32, ptr %24, align 4
  %127 = load i32, ptr %23, align 4
  %128 = sub i32 %126, %127
  %129 = icmp ugt i32 %128, 32
  br i1 %129, label %130, label %160

130:                                              ; preds = %116
  %131 = load ptr, ptr %8, align 8
  %132 = load i32, ptr %16, align 4
  %133 = load i32, ptr %25, align 4
  %134 = sitofp i32 %133 to float
  %135 = load i32, ptr %19, align 4
  %136 = load i32, ptr %17, align 4
  %137 = load i32, ptr %18, align 4
  call void @DAUDIO_AddAudioFormat(ptr noundef %131, i32 noundef %132, i32 noundef -1, i32 noundef -1, float noundef %134, i32 noundef %135, i32 noundef %136, i32 noundef %137)
  %138 = load ptr, ptr %8, align 8
  %139 = load i32, ptr %16, align 4
  %140 = load i32, ptr %15, align 4
  %141 = load i32, ptr %23, align 4
  %142 = mul i32 %140, %141
  %143 = load i32, ptr %23, align 4
  %144 = load i32, ptr %25, align 4
  %145 = sitofp i32 %144 to float
  %146 = load i32, ptr %19, align 4
  %147 = load i32, ptr %17, align 4
  %148 = load i32, ptr %18, align 4
  call void @DAUDIO_AddAudioFormat(ptr noundef %138, i32 noundef %139, i32 noundef %142, i32 noundef %143, float noundef %145, i32 noundef %146, i32 noundef %147, i32 noundef %148)
  %149 = load ptr, ptr %8, align 8
  %150 = load i32, ptr %16, align 4
  %151 = load i32, ptr %15, align 4
  %152 = load i32, ptr %24, align 4
  %153 = mul i32 %151, %152
  %154 = load i32, ptr %24, align 4
  %155 = load i32, ptr %25, align 4
  %156 = sitofp i32 %155 to float
  %157 = load i32, ptr %19, align 4
  %158 = load i32, ptr %17, align 4
  %159 = load i32, ptr %18, align 4
  call void @DAUDIO_AddAudioFormat(ptr noundef %149, i32 noundef %150, i32 noundef %153, i32 noundef %154, float noundef %156, i32 noundef %157, i32 noundef %158, i32 noundef %159)
  br label %182

160:                                              ; preds = %116
  %161 = load i32, ptr %23, align 4
  store i32 %161, ptr %22, align 4
  br label %162

162:                                              ; preds = %178, %160
  %163 = load i32, ptr %22, align 4
  %164 = load i32, ptr %24, align 4
  %165 = icmp ule i32 %163, %164
  br i1 %165, label %166, label %181

166:                                              ; preds = %162
  %167 = load ptr, ptr %8, align 8
  %168 = load i32, ptr %16, align 4
  %169 = load i32, ptr %15, align 4
  %170 = load i32, ptr %22, align 4
  %171 = mul i32 %169, %170
  %172 = load i32, ptr %22, align 4
  %173 = load i32, ptr %25, align 4
  %174 = sitofp i32 %173 to float
  %175 = load i32, ptr %19, align 4
  %176 = load i32, ptr %17, align 4
  %177 = load i32, ptr %18, align 4
  call void @DAUDIO_AddAudioFormat(ptr noundef %167, i32 noundef %168, i32 noundef %171, i32 noundef %172, float noundef %174, i32 noundef %175, i32 noundef %176, i32 noundef %177)
  br label %178

178:                                              ; preds = %166
  %179 = load i32, ptr %22, align 4
  %180 = add i32 %179, 1
  store i32 %180, ptr %22, align 4
  br label %162, !llvm.loop !8

181:                                              ; preds = %162
  br label %182

182:                                              ; preds = %181, %130
  br label %183

183:                                              ; preds = %182, %110
  br label %184

184:                                              ; preds = %183
  %185 = load i32, ptr %26, align 4
  %186 = add nsw i32 %185, -1
  store i32 %186, ptr %26, align 4
  %187 = icmp sgt i32 %186, 0
  br i1 %187, label %104, label %188, !llvm.loop !9

188:                                              ; preds = %184
  br label %190

189:                                              ; preds = %96
  br label %190

190:                                              ; preds = %189, %188
  br label %192

191:                                              ; preds = %91
  br label %192

192:                                              ; preds = %191, %190
  br label %193

193:                                              ; preds = %192
  %194 = load i32, ptr %11, align 4
  %195 = add nsw i32 %194, 1
  store i32 %195, ptr %11, align 4
  br label %88, !llvm.loop !10

196:                                              ; preds = %88
  %197 = load ptr, ptr %12, align 8
  call void @snd_pcm_hw_params_free(ptr noundef %197)
  br label %198

198:                                              ; preds = %196, %84
  %199 = load ptr, ptr %10, align 8
  call void @snd_pcm_format_mask_free(ptr noundef %199)
  br label %200

200:                                              ; preds = %198, %47
  %201 = load ptr, ptr %9, align 8
  %202 = call i32 @snd_pcm_close(ptr noundef %201)
  br label %203

203:                                              ; preds = %200, %42
  ret void
}